target datalayout = "e-m:e-p270:32:32-p271:32:32-p272:64:64-i64:64-i128:128-f80:128-n8:16:32:64-S128"
target triple = "x86_64-pc-linux-gnu"

%struct.FT_BBox_ = type { i64, i64, i64, i64 }
%struct.FT_Vector_ = type { i64, i64 }
%struct.FT_Generic_ = type { ptr, ptr }
%struct.FT_FaceRec_ = type { i64, i64, i64, i64, i64, ptr, ptr, i32, ptr, i32, ptr, %struct.FT_Generic_, %struct.FT_BBox_, i16, i16, i16, i16, i16, i16, i16, i16, ptr, ptr, ptr, ptr, ptr, ptr, %struct.FT_ListRec_, %struct.FT_Generic_, ptr, ptr }
%struct.FT_ListRec_ = type { ptr, ptr }
%struct.FT_Matrix_ = type { i64, i64, i64, i64 }
%struct.FT_CMapRec_ = type { %struct.FT_CharMapRec_, ptr }
%struct.FT_CharMapRec_ = type { ptr, i32, i16, i16 }
%struct.T1_FaceRec_ = type { %struct.FT_FaceRec_, %struct.T1_FontRec_, ptr, ptr, ptr, [2 x %struct.FT_CharMapRec_], [2 x ptr], ptr, i32, i32, i32, ptr, ptr }
%struct.T1_FontRec_ = type { %struct.PS_FontInfoRec_, %struct.PS_FontExtraRec_, %struct.PS_PrivateRec_, ptr, i32, %struct.T1_EncodingRecRec_, ptr, ptr, ptr, i32, ptr, ptr, ptr, i32, ptr, ptr, ptr, i8, i8, %struct.FT_Matrix_, %struct.FT_Vector_, %struct.FT_BBox_, i64, i64 }
%struct.PS_FontInfoRec_ = type { ptr, ptr, ptr, ptr, ptr, i64, i8, i16, i16 }
%struct.PS_FontExtraRec_ = type { i16 }
%struct.PS_PrivateRec_ = type { i32, i32, i8, i8, i8, i8, [14 x i16], [10 x i16], [14 x i16], [10 x i16], i64, i32, i32, [1 x i16], [1 x i16], i8, i8, i8, i8, [13 x i16], [13 x i16], i64, i64, i64, [2 x i16] }
%struct.T1_EncodingRecRec_ = type { i32, i32, i32, ptr, ptr }
%struct.FT_Service_PsCMapsRec_ = type { ptr, ptr, ptr, ptr, ptr, ptr, ptr, ptr }

; Function Attrs: nounwind uwtable
define internal i32 @t1_cmap_unicode_char_next(ptr noundef %0, ptr noundef %1) #0 {
  %3 = alloca ptr, align 8
  %4 = alloca ptr, align 8
  %5 = alloca ptr, align 8
  %6 = alloca ptr, align 8
  %7 = alloca ptr, align 8
  store ptr %0, ptr %3, align 8
  store ptr %1, ptr %4, align 8
  %8 = load ptr, ptr %3, align 8
  store ptr %8, ptr %5, align 8
  %9 = load ptr, ptr %3, align 8
  %10 = getelementptr inbounds %struct.FT_CMapRec_, ptr %9, i32 0, i32 0
  %11 = getelementptr inbounds %struct.FT_CharMapRec_, ptr %10, i32 0, i32 0
  %12 = load ptr, ptr %11, align 8
  store ptr %12, ptr %6, align 8
  %13 = load ptr, ptr %6, align 8
  %14 = getelementptr inbounds %struct.T1_FaceRec_, ptr %13, i32 0, i32 2
  %15 = load ptr, ptr %14, align 8
  store ptr %15, ptr %7, align 8
  %16 = load ptr, ptr %7, align 8
  %17 = getelementptr inbounds %struct.FT_Service_PsCMapsRec_, ptr %16, i32 0, i32 3
  %18 = load ptr, ptr %17, align 8
  %19 = load ptr, ptr %5, align 8
  %20 = load ptr, ptr %4, align 8
  %21 = call i32 %18(ptr noundef %19, ptr noundef %20)
  ret i32 %21
}