; Function Attrs: nounwind uwtable
define internal i32 @t1_cmap_unicode_char_next(ptr noundef %0, ptr noundef %1) #0 {
  %3 = load ptr, ptr %0, align 8
  %4 = getelementptr inbounds nuw i8, ptr %3, i64 776
  %5 = load ptr, ptr %4, align 8
  %6 = getelementptr inbounds nuw i8, ptr %5, i64 24
  %7 = load ptr, ptr %6, align 8
  %8 = tail call i32 %7(ptr noundef nonnull %0, ptr noundef %1) #20
  ret i32 %8
}